; ModuleID = 'source-C-CXX/10/876.c'
source_filename = "source-C-CXX/10/876.c"
target datalayout = "e-m:e-p270:32:32-p271:32:32-p272:64:64-i64:64-f80:128-n8:16:32:64-S128"
target triple = "x86_64-pc-linux-gnu"

@.str = private unnamed_addr constant [9 x i8] c"%d %d %d\00", align 1
@.str.1 = private unnamed_addr constant [3 x i8] c"%d\00", align 1

; Function Attrs: nofree nounwind sspstrong uwtable
define dso_local i32 @main() local_unnamed_addr #0 {
  %1 = alloca i32, align 4
  %2 = alloca i32, align 4
  %3 = alloca i32, align 4
  %4 = alloca [11 x i32], align 16
  %5 = bitcast i32* %1 to i8*
  call void @llvm.lifetime.start.p0i8(i64 4, i8* nonnull %5) #4
  %6 = bitcast i32* %2 to i8*
  call void @llvm.lifetime.start.p0i8(i64 4, i8* nonnull %6) #4
  %7 = bitcast i32* %3 to i8*
  call void @llvm.lifetime.start.p0i8(i64 4, i8* nonnull %7) #4
  %8 = bitcast [11 x i32]* %4 to i8*
  call void @llvm.lifetime.start.p0i8(i64 44, i8* nonnull %8) #4
  %9 = call i32 (i8*, ...) @__isoc99_scanf(i8* getelementptr inbounds ([9 x i8], [9 x i8]* @.str, i64 0, i64 0), i32* nonnull %1, i32* nonnull %2, i32* nonnull %3)
  %10 = getelementptr inbounds [11 x i32], [11 x i32]* %4, i64 0, i64 6
  %11 = getelementptr inbounds [11 x i32], [11 x i32]* %4, i64 0, i64 2
  %12 = getelementptr inbounds [11 x i32], [11 x i32]* %4, i64 0, i64 0
  store i32 31, i32* %12, align 16, !tbaa !5
  %13 = getelementptr inbounds [11 x i32], [11 x i32]* %4, i64 0, i64 10
  store i32 30, i32* %13, align 8, !tbaa !5
  %14 = bitcast i32* %10 to <4 x i32>*
  store <4 x i32> <i32 31, i32 31, i32 30, i32 31>, <4 x i32>* %14, align 8, !tbaa !5
  %15 = bitcast i32* %11 to <4 x i32>*
  store <4 x i32> <i32 31, i32 30, i32 31, i32 30>, <4 x i32>* %15, align 8, !tbaa !5
  %16 = load i32, i32* %1, align 4, !tbaa !5
  %17 = and i32 %16, 3
  %18 = icmp eq i32 %17, 0
  br i1 %18, label %21, label %19

19:                                               ; preds = %0
  %20 = getelementptr inbounds [11 x i32], [11 x i32]* %4, i64 0, i64 1
  store i32 28, i32* %20, align 4, !tbaa !5
  br label %32

21:                                               ; preds = %0
  %22 = srem i32 %16, 100
  %23 = icmp eq i32 %22, 0
  br i1 %23, label %24, label %30

24:                                               ; preds = %21
  %25 = srem i32 %16, 400
  %26 = icmp eq i32 %25, 0
  %27 = getelementptr inbounds [11 x i32], [11 x i32]* %4, i64 0, i64 1
  br i1 %26, label %28, label %29

28:                                               ; preds = %24
  store i32 29, i32* %27, align 4, !tbaa !5
  br label %32

29:                                               ; preds = %24
  store i32 28, i32* %27, align 4, !tbaa !5
  br label %32

30:                                               ; preds = %21
  %31 = getelementptr inbounds [11 x i32], [11 x i32]* %4, i64 0, i64 1
  store i32 29, i32* %31, align 4, !tbaa !5
  br label %32

32:                                               ; preds = %30, %29, %28, %19
  %33 = load i32, i32* %2, align 4, !tbaa !5
  %34 = icmp sgt i32 %33, 1
  br i1 %34, label %35, label %137

35:                                               ; preds = %32
  %36 = add nsw i32 %33, -1
  %37 = zext i32 %36 to i64
  %38 = icmp eq i32 %36, 1
  br i1 %38, label %137, label %39, !llvm.loop !9

39:                                               ; preds = %35
  %40 = add nsw i64 %37, -1
  %41 = icmp ult i64 %40, 8
  br i1 %41, label %126, label %42

42:                                               ; preds = %39
  %43 = and i64 %40, -8
  %44 = or i64 %43, 1
  %45 = add nsw i64 %43, -8
  %46 = lshr exact i64 %45, 3
  %47 = add nuw nsw i64 %46, 1
  %48 = and i64 %47, 3
  %49 = icmp ult i64 %45, 24
  br i1 %49, label %96, label %50

50:                                               ; preds = %42
  %51 = and i64 %47, 4611686018427387900
  br label %52

52:                                               ; preds = %52, %50
  %53 = phi i64 [ 0, %50 ], [ %93, %52 ]
  %54 = phi <4 x i32> [ <i32 31, i32 0, i32 0, i32 0>, %50 ], [ %91, %52 ]
  %55 = phi <4 x i32> [ zeroinitializer, %50 ], [ %92, %52 ]
  %56 = phi i64 [ %51, %50 ], [ %94, %52 ]
  %57 = or i64 %53, 1
  %58 = getelementptr inbounds [11 x i32], [11 x i32]* %4, i64 0, i64 %57
  %59 = bitcast i32* %58 to <4 x i32>*
  %60 = load <4 x i32>, <4 x i32>* %59, align 4, !tbaa !5
  %61 = getelementptr inbounds i32, i32* %58, i64 4
  %62 = bitcast i32* %61 to <4 x i32>*
  %63 = load <4 x i32>, <4 x i32>* %62, align 4, !tbaa !5
  %64 = add <4 x i32> %60, %54
  %65 = add <4 x i32> %63, %55
  %66 = or i64 %53, 9
  %67 = getelementptr inbounds [11 x i32], [11 x i32]* %4, i64 0, i64 %66
  %68 = bitcast i32* %67 to <4 x i32>*
  %69 = load <4 x i32>, <4 x i32>* %68, align 4, !tbaa !5
  %70 = getelementptr inbounds i32, i32* %67, i64 4
  %71 = bitcast i32* %70 to <4 x i32>*
  %72 = load <4 x i32>, <4 x i32>* %71, align 4, !tbaa !5
  %73 = add <4 x i32> %69, %64
  %74 = add <4 x i32> %72, %65
  %75 = or i64 %53, 17
  %76 = getelementptr inbounds [11 x i32], [11 x i32]* %4, i64 0, i64 %75
  %77 = bitcast i32* %76 to <4 x i32>*
  %78 = load <4 x i32>, <4 x i32>* %77, align 4, !tbaa !5
  %79 = getelementptr inbounds i32, i32* %76, i64 4
  %80 = bitcast i32* %79 to <4 x i32>*
  %81 = load <4 x i32>, <4 x i32>* %80, align 4, !tbaa !5
  %82 = add <4 x i32> %78, %73
  %83 = add <4 x i32> %81, %74
  %84 = or i64 %53, 25
  %85 = getelementptr inbounds [11 x i32], [11 x i32]* %4, i64 0, i64 %84
  %86 = bitcast i32* %85 to <4 x i32>*
  %87 = load <4 x i32>, <4 x i32>* %86, align 4, !tbaa !5
  %88 = getelementptr inbounds i32, i32* %85, i64 4
  %89 = bitcast i32* %88 to <4 x i32>*
  %90 = load <4 x i32>, <4 x i32>* %89, align 4, !tbaa !5
  %91 = add <4 x i32> %87, %82
  %92 = add <4 x i32> %90, %83
  %93 = add nuw i64 %53, 32
  %94 = add i64 %56, -4
  %95 = icmp eq i64 %94, 0
  br i1 %95, label %96, label %52, !llvm.loop !11

96:                                               ; preds = %52, %42
  %97 = phi <4 x i32> [ undef, %42 ], [ %91, %52 ]
  %98 = phi <4 x i32> [ undef, %42 ], [ %92, %52 ]
  %99 = phi i64 [ 0, %42 ], [ %93, %52 ]
  %100 = phi <4 x i32> [ <i32 31, i32 0, i32 0, i32 0>, %42 ], [ %91, %52 ]
  %101 = phi <4 x i32> [ zeroinitializer, %42 ], [ %92, %52 ]
  %102 = icmp eq i64 %48, 0
  br i1 %102, label %120, label %103

103:                                              ; preds = %96, %103
  %104 = phi i64 [ %117, %103 ], [ %99, %96 ]
  %105 = phi <4 x i32> [ %115, %103 ], [ %100, %96 ]
  %106 = phi <4 x i32> [ %116, %103 ], [ %101, %96 ]
  %107 = phi i64 [ %118, %103 ], [ %48, %96 ]
  %108 = or i64 %104, 1
  %109 = getelementptr inbounds [11 x i32], [11 x i32]* %4, i64 0, i64 %108
  %110 = bitcast i32* %109 to <4 x i32>*
  %111 = load <4 x i32>, <4 x i32>* %110, align 4, !tbaa !5
  %112 = getelementptr inbounds i32, i32* %109, i64 4
  %113 = bitcast i32* %112 to <4 x i32>*
  %114 = load <4 x i32>, <4 x i32>* %113, align 4, !tbaa !5
  %115 = add <4 x i32> %111, %105
  %116 = add <4 x i32> %114, %106
  %117 = add nuw i64 %104, 8
  %118 = add i64 %107, -1
  %119 = icmp eq i64 %118, 0
  br i1 %119, label %120, label %103, !llvm.loop !13

120:                                              ; preds = %103, %96
  %121 = phi <4 x i32> [ %97, %96 ], [ %115, %103 ]
  %122 = phi <4 x i32> [ %98, %96 ], [ %116, %103 ]
  %123 = add <4 x i32> %122, %121
  %124 = call i32 @llvm.vector.reduce.add.v4i32(<4 x i32> %123)
  %125 = icmp eq i64 %40, %43
  br i1 %125, label %137, label %126

126:                                              ; preds = %39, %120
  %127 = phi i64 [ 1, %39 ], [ %44, %120 ]
  %128 = phi i32 [ 31, %39 ], [ %124, %120 ]
  br label %129

129:                                              ; preds = %126, %129
  %130 = phi i64 [ %135, %129 ], [ %127, %126 ]
  %131 = phi i32 [ %134, %129 ], [ %128, %126 ]
  %132 = getelementptr inbounds [11 x i32], [11 x i32]* %4, i64 0, i64 %130
  %133 = load i32, i32* %132, align 4, !tbaa !5
  %134 = add nsw i32 %133, %131
  %135 = add nuw nsw i64 %130, 1
  %136 = icmp eq i64 %135, %37
  br i1 %136, label %137, label %129, !llvm.loop !15

137:                                              ; preds = %129, %35, %120, %32
  %138 = phi i32 [ 0, %32 ], [ 31, %35 ], [ %124, %120 ], [ %134, %129 ]
  %139 = load i32, i32* %3, align 4, !tbaa !5
  %140 = add nsw i32 %139, %138
  %141 = call i32 (i8*, ...) @printf(i8* nonnull dereferenceable(1) getelementptr inbounds ([3 x i8], [3 x i8]* @.str.1, i64 0, i64 0), i32 %140)
  call void @llvm.lifetime.end.p0i8(i64 44, i8* nonnull %8) #4
  call void @llvm.lifetime.end.p0i8(i64 4, i8* nonnull %7) #4
  call void @llvm.lifetime.end.p0i8(i64 4, i8* nonnull %6) #4
  call void @llvm.lifetime.end.p0i8(i64 4, i8* nonnull %5) #4
  ret i32 0
}

; Function Attrs: argmemonly mustprogress nofree nosync nounwind willreturn
declare void @llvm.lifetime.start.p0i8(i64 immarg, i8* nocapture) #1

; Function Attrs: nofree nounwind
declare noundef i32 @__isoc99_scanf(i8* nocapture noundef readonly, ...) local_unnamed_addr #2

; Function Attrs: nofree nounwind
declare noundef i32 @printf(i8* nocapture noundef readonly, ...) local_unnamed_addr #2

; Function Attrs: argmemonly mustprogress nofree nosync nounwind willreturn
declare void @llvm.lifetime.end.p0i8(i64 immarg, i8* nocapture) #1

; Function Attrs: nofree nosync nounwind readnone willreturn
declare i32 @llvm.vector.reduce.add.v4i32(<4 x i32>) #3


!llvm.module.flags = !{!0, !1, !2, !3}
!llvm.ident = !{!4}

!0 = !{i32 1, !"wchar_size", i32 4}
!1 = !{i32 7, !"PIC Level", i32 2}
!2 = !{i32 7, !"PIE Level", i32 2}
!3 = !{i32 7, !"uwtable", i32 1}
!4 = !{!"clang version 13.0.0"}
!5 = !{!6, !6, i64 0}
!6 = !{!"int", !7, i64 0}
!7 = !{!"omnipotent char", !8, i64 0}
!8 = !{!"Simple C/C++ TBAA"}
!9 = distinct !{!9, !10}
!10 = !{!"llvm.loop.mustprogress"}
!11 = distinct !{!11, !10, !12}
!12 = !{!"llvm.loop.isvectorized", i32 1}
!13 = distinct !{!13, !14}
!14 = !{!"llvm.loop.unroll.disable"}
!15 = distinct !{!15, !10, !16, !12}
!16 = !{!"llvm.loop.unroll.runtime.disable"}
